#include <math.h>
#include <stdio.h>
#include <stdlib.h>
#include <string.h>

int main()
{
    int n,k,*a,i,j,flag=0;
    scanf("%d%d\n",&n,&k);
    a=(int*)malloc(n*sizeof(int));
    for(i=0;i<n;i++) scanf("%d",&a[i]);
    for(i=0;i<n-1;i++)
    {
                    for(j=i+1;j<n;j++)
                    {
                                      if(a[i]+a[j]==k) 
                                      {printf("yes");
                                      flag=1;
                                      break;}
                                      }
                    if(flag==1) break;
    }
    if(flag==0) printf("no");
    return 0;
}